; Function Attrs: mustprogress uwtable
define void @_ZN6duckdb11RegrAvgyFun11GetFunctionEv(ptr dead_on_unwind noalias writable sret(%"class.duckdb::AggregateFunction") align 8 %0) local_unnamed_addr #0 align 2 personality ptr @__gxx_personality_v0 {
  %2 = alloca %"struct.duckdb::LogicalType", align 8
  %3 = alloca %"struct.duckdb::LogicalType", align 8
  %4 = alloca %"struct.duckdb::LogicalType", align 8
  call void @llvm.lifetime.start.p0(i64 24, ptr nonnull %2) #19
  call void @_ZN6duckdb11LogicalTypeC1ENS_13LogicalTypeIdE(ptr noundef nonnull align 8 dereferenceable(24) %2, i8 noundef zeroext 23)
  call void @llvm.lifetime.start.p0(i64 24, ptr nonnull %3) #19
  invoke void @_ZN6duckdb11LogicalTypeC1ENS_13LogicalTypeIdE(ptr noundef nonnull align 8 dereferenceable(24) %3, i8 noundef zeroext 23)
          to label %5 unwind label %8

5:                                                ; preds = %1
  invoke void @_ZN6duckdb11LogicalTypeC1ENS_13LogicalTypeIdE(ptr noundef nonnull align 8 dereferenceable(24) %4, i8 noundef zeroext 23)
          to label %6 unwind label %10

6:                                                ; preds = %5
  invoke void @_ZN6duckdb17AggregateFunction15BinaryAggregateINS_9RegrStateEdddNS_16RegrAvgYFunctionELNS_23AggregateDestructorTypeE0EEES0_RKNS_11LogicalTypeES7_S5_(ptr dead_on_unwind writable sret(%"class.duckdb::AggregateFunction") align 8 %0, ptr noundef nonnull align 8 dereferenceable(24) %2, ptr noundef nonnull align 8 dereferenceable(24) %3, ptr noundef nonnull %4)
          to label %7 unwind label %12

7:                                                ; preds = %6
  call void @_ZN6duckdb11LogicalTypeD1Ev(ptr noundef nonnull align 8 dereferenceable(24) %4) #19
  call void @_ZN6duckdb11LogicalTypeD1Ev(ptr noundef nonnull align 8 dereferenceable(24) %3) #19
  call void @llvm.lifetime.end.p0(i64 24, ptr nonnull %3) #19
  call void @_ZN6duckdb11LogicalTypeD1Ev(ptr noundef nonnull align 8 dereferenceable(24) %2) #19
  call void @llvm.lifetime.end.p0(i64 24, ptr nonnull %2) #19
  ret void

8:                                                ; preds = %1
  %9 = landingpad { ptr, i32 }
          cleanup
  br label %15

10:                                               ; preds = %5
  %11 = landingpad { ptr, i32 }
          cleanup
  br label %14

12:                                               ; preds = %6
  %13 = landingpad { ptr, i32 }
          cleanup
  call void @_ZN6duckdb11LogicalTypeD1Ev(ptr noundef nonnull align 8 dereferenceable(24) %4) #19
  br label %14

14:                                               ; preds = %12, %10
  %.pn = phi { ptr, i32 } [ %13, %12 ], [ %11, %10 ]
  call void @_ZN6duckdb11LogicalTypeD1Ev(ptr noundef nonnull align 8 dereferenceable(24) %3) #19
  br label %15

15:                                               ; preds = %14, %8
  %.pn.pn = phi { ptr, i32 } [ %.pn, %14 ], [ %9, %8 ]
  call void @llvm.lifetime.end.p0(i64 24, ptr nonnull %3) #19
  call void @_ZN6duckdb11LogicalTypeD1Ev(ptr noundef nonnull align 8 dereferenceable(24) %2) #19
  call void @llvm.lifetime.end.p0(i64 24, ptr nonnull %2) #19
  resume { ptr, i32 } %.pn.pn
}